; Function Attrs: mustprogress uwtable
define void @ggml_opt_dataset_free(ptr noundef %0) local_unnamed_addr #0 personality ptr @__gxx_personality_v0 {
  %2 = getelementptr inbounds nuw i8, ptr %0, i64 8
  %3 = load ptr, ptr %2, align 8, !tbaa !27
  tail call void @ggml_backend_buffer_free(ptr noundef %3)
  %4 = load ptr, ptr %0, align 8, !tbaa !22
  tail call void @ggml_free(ptr noundef %4)
  %5 = getelementptr inbounds nuw i8, ptr %0, i64 64
  %6 = load ptr, ptr %5, align 8, !tbaa !28
  %.not.i.i.i.i = icmp eq ptr %6, null
  br i1 %.not.i.i.i.i, label %_ZN16ggml_opt_datasetD2Ev.exit, label %7

7:                                                ; preds = %1
  %8 = getelementptr inbounds nuw i8, ptr %0, i64 80
  %9 = load ptr, ptr %8, align 8, !tbaa !31
  %10 = ptrtoint ptr %9 to i64
  %11 = ptrtoint ptr %6 to i64
  %12 = sub i64 %10, %11
  tail call void @_ZdlPvm(ptr noundef nonnull %6, i64 noundef %12) #29
  br label %_ZN16ggml_opt_datasetD2Ev.exit

_ZN16ggml_opt_datasetD2Ev.exit:                   ; preds = %1, %7
  tail call void @_ZdlPvm(ptr noundef nonnull %0, i64 noundef 88) #29
  ret void
}